; Function Attrs: mustprogress nofree norecurse nosync nounwind willreturn memory(argmem: readwrite, inaccessiblemem: write) uwtable
define void @_ZN7glslang9TBuiltInsD2Ev(ptr noundef nonnull align 8 dereferenceable(876) initializes((0, 8)) %0) unnamed_addr #2 align 2 {
  store ptr getelementptr inbounds nuw inrange(-16, 64) (i8, ptr @_ZTVN7glslang18TBuiltInParseablesE, i64 16), ptr %0, align 8
  %2 = getelementptr inbounds nuw i8, ptr %0, i64 16
  %3 = load ptr, ptr %2, align 8
  %4 = getelementptr inbounds nuw i8, ptr %0, i64 32
  %5 = icmp eq ptr %3, %4
  br i1 %5, label %_ZNKSt7__cxx1112basic_stringIcSt11char_traitsIcEN7glslang14pool_allocatorIcEEE11_M_is_localEv.exit.thread.i.i3.i, label %_ZN7glslang18TBuiltInParseablesD2Ev.exit

_ZNKSt7__cxx1112basic_stringIcSt11char_traitsIcEN7glslang14pool_allocatorIcEEE11_M_is_localEv.exit.thread.i.i3.i: ; preds = %1
  %6 = getelementptr inbounds nuw i8, ptr %0, i64 24
  %7 = load i64, ptr %6, align 8
  %8 = icmp ult i64 %7, 16
  tail call void @llvm.assume(i1 %8)
  br label %_ZN7glslang18TBuiltInParseablesD2Ev.exit

_ZN7glslang18TBuiltInParseablesD2Ev.exit:         ; preds = %1, %_ZNKSt7__cxx1112basic_stringIcSt11char_traitsIcEN7glslang14pool_allocatorIcEEE11_M_is_localEv.exit.thread.i.i3.i
  ret void
}